target datalayout = "e-m:e-p270:32:32-p271:32:32-p272:64:64-i64:64-i128:128-f80:128-n8:16:32:64-S128"
target triple = "x86_64-pc-linux-gnu"

%"class.icu_77::SimpleLocaleKeyFactory" = type <{ %"class.icu_77::LocaleKeyFactory.base", [4 x i8], ptr, %"class.icu_77::UnicodeString", i32, [4 x i8] }>
%"class.icu_77::LocaleKeyFactory.base" = type <{ %"class.icu_77::ICUServiceFactory", %"class.icu_77::UnicodeString", i32 }>
%"class.icu_77::ICUServiceFactory" = type { %"class.icu_77::UObject" }
%"class.icu_77::UObject" = type { ptr }
%"class.icu_77::UnicodeString" = type { %"class.icu_77::Replaceable", %"union.icu_77::UnicodeString::StackBufferOrFields" }
%"class.icu_77::Replaceable" = type { %"class.icu_77::UObject" }
%"union.icu_77::UnicodeString::StackBufferOrFields" = type { %struct.anon.0, [32 x i8] }
%struct.anon.0 = type { i16, i32, i32, ptr }
%"class.icu_77::LocaleKeyFactory" = type <{ %"class.icu_77::ICUServiceFactory", %"class.icu_77::UnicodeString", i32, [4 x i8] }>
%"class.icu_77::Hashtable" = type { ptr, %struct.UHashtable }
%struct.UHashtable = type { ptr, ptr, ptr, ptr, ptr, ptr, i32, i32, i32, i32, float, float, i8, i8 }

; Function Attrs: inlinehint mustprogress uwtable
define linkonce_odr noundef ptr @_ZN6icu_779Hashtable3putERKNS_13UnicodeStringEPvR10UErrorCode(ptr noundef nonnull align 8 dereferenceable(88) %0, ptr noundef nonnull align 8 dereferenceable(64) %1, ptr noundef %2, ptr noundef nonnull align 4 dereferenceable(4) %3) #3 comdat align 2 personality ptr @__gxx_personality_v0 {
  %5 = alloca ptr, align 8
  %6 = alloca ptr, align 8
  %7 = alloca ptr, align 8
  %8 = alloca ptr, align 8
  %9 = alloca i1, align 1
  %10 = alloca ptr, align 8
  %11 = alloca i32, align 4
  store ptr %0, ptr %5, align 8, !tbaa !48
  store ptr %1, ptr %6, align 8, !tbaa !27
  store ptr %2, ptr %7, align 8, !tbaa !22
  store ptr %3, ptr %8, align 8, !tbaa !22
  %12 = load ptr, ptr %5, align 8
  %13 = getelementptr inbounds nuw %"class.icu_77::Hashtable", ptr %12, i32 0, i32 0
  %14 = load ptr, ptr %13, align 8, !tbaa !51
  %15 = call noundef ptr @_ZN6icu_777UMemorynwEm(i64 noundef 64) #10
  %16 = icmp eq ptr %15, null
  store i1 false, ptr %9, align 1
  br i1 %16, label %20, label %17

17:                                               ; preds = %4
  store i1 true, ptr %9, align 1
  %18 = load ptr, ptr %6, align 8, !tbaa !27
  invoke void @_ZN6icu_7713UnicodeStringC1ERKS0_(ptr noundef nonnull align 8 dereferenceable(64) %15, ptr noundef nonnull align 8 dereferenceable(64) %18)
          to label %19 unwind label %25

19:                                               ; preds = %17
  br label %20

20:                                               ; preds = %19, %4
  %21 = phi ptr [ %15, %19 ], [ null, %4 ]
  %22 = load ptr, ptr %7, align 8, !tbaa !22
  %23 = load ptr, ptr %8, align 8, !tbaa !22
  %24 = call ptr @uhash_put_77(ptr noundef %14, ptr noundef %21, ptr noundef %22, ptr noundef %23)
  ret ptr %24

25:                                               ; preds = %17
  %26 = landingpad { ptr, i32 }
          cleanup
  %27 = extractvalue { ptr, i32 } %26, 0
  store ptr %27, ptr %10, align 8
  %28 = extractvalue { ptr, i32 } %26, 1
  store i32 %28, ptr %11, align 4
  %29 = load i1, ptr %9, align 1
  br i1 %29, label %30, label %31

30:                                               ; preds = %25
  call void @_ZN6icu_777UMemorydlEPv(ptr noundef %15) #10
  br label %31

31:                                               ; preds = %30, %25
  br label %32

32:                                               ; preds = %31
  %33 = load ptr, ptr %10, align 8
  %34 = load i32, ptr %11, align 4
  %35 = insertvalue { ptr, i32 } poison, ptr %33, 0
  %36 = insertvalue { ptr, i32 } %35, i32 %34, 1
  resume { ptr, i32 } %36
}

; Function Attrs: inlinehint mustprogress uwtable
define linkonce_odr noundef ptr @_ZN6icu_779Hashtable6removeERKNS_13UnicodeStringE(ptr noundef nonnull align 8 dereferenceable(88) %0, ptr noundef nonnull align 8 dereferenceable(64) %1) #3 comdat align 2 {
  %3 = alloca ptr, align 8
  %4 = alloca ptr, align 8
  store ptr %0, ptr %3, align 8, !tbaa !48
  store ptr %1, ptr %4, align 8, !tbaa !27
  %5 = load ptr, ptr %3, align 8
  %6 = getelementptr inbounds nuw %"class.icu_77::Hashtable", ptr %5, i32 0, i32 0
  %7 = load ptr, ptr %6, align 8, !tbaa !51
  %8 = load ptr, ptr %4, align 8, !tbaa !27
  %9 = call ptr @uhash_remove_77(ptr noundef %7, ptr noundef %8)
  ret ptr %9
}

; Function Attrs: inlinehint mustprogress nounwind uwtable
define internal noundef signext i8 @_ZL9U_SUCCESS10UErrorCode(i32 noundef %0) #2 {
  %2 = alloca i32, align 4
  store i32 %0, ptr %2, align 4, !tbaa !15
  %3 = load i32, ptr %2, align 4, !tbaa !15
  %4 = icmp sle i32 %3, 0
  %5 = zext i1 %4 to i8
  ret i8 %5
}

; Function Attrs: mustprogress uwtable
define void @_ZNK6icu_7722SimpleLocaleKeyFactory16updateVisibleIDsERNS_9HashtableER10UErrorCode(ptr noundef nonnull align 8 dereferenceable(156) %0, ptr noundef nonnull align 8 dereferenceable(88) %1, ptr noundef nonnull align 4 dereferenceable(4) %2) unnamed_addr #1 align 2 {
  %4 = alloca ptr, align 8
  %5 = alloca ptr, align 8
  %6 = alloca ptr, align 8
  store ptr %0, ptr %4, align 8, !tbaa !23
  store ptr %1, ptr %5, align 8, !tbaa !48
  store ptr %2, ptr %6, align 8, !tbaa !22
  %7 = load ptr, ptr %4, align 8
  %8 = load ptr, ptr %6, align 8, !tbaa !22
  %9 = load i32, ptr %8, align 4, !tbaa !15
  %10 = call noundef signext i8 @_ZL9U_SUCCESS10UErrorCode(i32 noundef %9)
  %11 = icmp ne i8 %10, 0
  br i1 %11, label %12, label %27

12:                                               ; preds = %3
  %13 = getelementptr inbounds nuw %"class.icu_77::LocaleKeyFactory", ptr %7, i32 0, i32 2
  %14 = load i32, ptr %13, align 8, !tbaa !50
  %15 = and i32 %14, 1
  %16 = icmp ne i32 %15, 0
  br i1 %16, label %17, label %21

17:                                               ; preds = %12
  %18 = load ptr, ptr %5, align 8, !tbaa !48
  %19 = getelementptr inbounds nuw %"class.icu_77::SimpleLocaleKeyFactory", ptr %7, i32 0, i32 3
  %20 = call noundef ptr @_ZN6icu_779Hashtable6removeERKNS_13UnicodeStringE(ptr noundef nonnull align 8 dereferenceable(88) %18, ptr noundef nonnull align 8 dereferenceable(64) %19)
  br label %26

21:                                               ; preds = %12
  %22 = load ptr, ptr %5, align 8, !tbaa !48
  %23 = getelementptr inbounds nuw %"class.icu_77::SimpleLocaleKeyFactory", ptr %7, i32 0, i32 3
  %24 = load ptr, ptr %6, align 8, !tbaa !22
  %25 = call noundef ptr @_ZN6icu_779Hashtable3putERKNS_13UnicodeStringEPvR10UErrorCode(ptr noundef nonnull align 8 dereferenceable(88) %22, ptr noundef nonnull align 8 dereferenceable(64) %23, ptr noundef %7, ptr noundef nonnull align 4 dereferenceable(4) %24)
  br label %26

26:                                               ; preds = %21, %17
  br label %27

27:                                               ; preds = %26, %3
  ret void
}