; Function Attrs: mustprogress uwtable
define void @_ZNK6icu_7722SimpleLocaleKeyFactory16updateVisibleIDsERNS_9HashtableER10UErrorCode(ptr noundef nonnull align 8 dereferenceable(156) %0, ptr noundef nonnull readonly align 8 captures(none) dereferenceable(88) %1, ptr noundef nonnull align 4 dereferenceable(4) %2) unnamed_addr #1 align 2 personality ptr @__gxx_personality_v0 {
  %4 = load i32, ptr %2, align 4, !tbaa !13
  %5 = icmp sgt i32 %4, 0
  br i1 %5, label %23, label %6

6:                                                ; preds = %3
  %7 = getelementptr inbounds nuw i8, ptr %0, i64 72
  %8 = load i32, ptr %7, align 8, !tbaa !27
  %9 = and i32 %8, 1
  %.not5 = icmp eq i32 %9, 0
  br i1 %.not5, label %14, label %10

10:                                               ; preds = %6
  %11 = getelementptr inbounds nuw i8, ptr %0, i64 88
  %12 = load ptr, ptr %1, align 8, !tbaa !28
  %13 = tail call noundef ptr @uhash_remove_77(ptr noundef %12, ptr noundef nonnull align 8 dereferenceable(64) %11)
  br label %23

14:                                               ; preds = %6
  %15 = load ptr, ptr %1, align 8, !tbaa !28
  %16 = tail call noundef ptr @_ZN6icu_777UMemorynwEm(i64 noundef 64) #13
  %17 = icmp eq ptr %16, null
  br i1 %17, label %_ZN6icu_779Hashtable3putERKNS_13UnicodeStringEPvR10UErrorCode.exit, label %18

18:                                               ; preds = %14
  %19 = getelementptr inbounds nuw i8, ptr %0, i64 88
  invoke void @_ZN6icu_7713UnicodeStringC1ERKS0_(ptr noundef nonnull align 8 dereferenceable(64) %16, ptr noundef nonnull align 8 dereferenceable(64) %19)
          to label %_ZN6icu_779Hashtable3putERKNS_13UnicodeStringEPvR10UErrorCode.exit unwind label %20

20:                                               ; preds = %18
  %21 = landingpad { ptr, i32 }
          cleanup
  tail call void @_ZN6icu_777UMemorydlEPv(ptr noundef nonnull %16) #13
  resume { ptr, i32 } %21

_ZN6icu_779Hashtable3putERKNS_13UnicodeStringEPvR10UErrorCode.exit: ; preds = %14, %18
  %22 = tail call noundef ptr @uhash_put_77(ptr noundef %15, ptr noundef %16, ptr noundef nonnull %0, ptr noundef nonnull align 4 dereferenceable(4) %2)
  br label %23

23:                                               ; preds = %10, %_ZN6icu_779Hashtable3putERKNS_13UnicodeStringEPvR10UErrorCode.exit, %3
  ret void
}